target datalayout = "e-m:e-p270:32:32-p271:32:32-p272:64:64-i64:64-i128:128-f80:128-n8:16:32:64-S128"
target triple = "x86_64-pc-linux-gnu"

%struct.PJconsts = type { ptr, ptr, ptr, ptr, ptr, ptr, ptr, ptr, ptr, ptr, ptr, ptr, i32, ptr, ptr, ptr, ptr, ptr, ptr, ptr, ptr, double, double, double, double, double, double, double, double, double, double, double, double, double, double, double, double, double, double, double, double, double, double, i32, i32, i32, i32, i32, i32, i32, i32, i32, i32, i32, ptr, ptr, ptr, ptr, ptr, ptr, double, double, double, double, double, double, double, double, double, double, double, i32, [7 x double], i32, ptr, ptr, double, double, i32, [4 x i8], %"class.std::shared_ptr", i8, double, i8, %"class.std::__cxx11::basic_string", %"class.std::__cxx11::basic_string", %"class.std::__cxx11::basic_string", i8, %"class.std::vector", i32, %"class.std::vector.3", i32, i8, i8, i8, ptr }
%"class.std::shared_ptr" = type { %"class.std::__shared_ptr" }
%"class.std::__shared_ptr" = type { ptr, %"class.std::__shared_count" }
%"class.std::__shared_count" = type { ptr }
%"class.std::__cxx11::basic_string" = type { %"struct.std::__cxx11::basic_string<char>::_Alloc_hider", i64, %union.anon }
%"struct.std::__cxx11::basic_string<char>::_Alloc_hider" = type { ptr }
%union.anon = type { i64, [8 x i8] }
%"class.std::vector" = type { %"struct.std::_Vector_base" }
%"struct.std::_Vector_base" = type { %"struct.std::_Vector_base<osgeo::proj::operation::GridDescription, std::allocator<osgeo::proj::operation::GridDescription>>::_Vector_impl" }
%"struct.std::_Vector_base<osgeo::proj::operation::GridDescription, std::allocator<osgeo::proj::operation::GridDescription>>::_Vector_impl" = type { %"struct.std::_Vector_base<osgeo::proj::operation::GridDescription, std::allocator<osgeo::proj::operation::GridDescription>>::_Vector_impl_data" }
%"struct.std::_Vector_base<osgeo::proj::operation::GridDescription, std::allocator<osgeo::proj::operation::GridDescription>>::_Vector_impl_data" = type { ptr, ptr, ptr }
%"class.std::vector.3" = type { %"struct.std::_Vector_base.4" }
%"struct.std::_Vector_base.4" = type { %"struct.std::_Vector_base<PJCoordOperation, std::allocator<PJCoordOperation>>::_Vector_impl" }
%"struct.std::_Vector_base<PJCoordOperation, std::allocator<PJCoordOperation>>::_Vector_impl" = type { %"struct.std::_Vector_base<PJCoordOperation, std::allocator<PJCoordOperation>>::_Vector_impl_data" }
%"struct.std::_Vector_base<PJCoordOperation, std::allocator<PJCoordOperation>>::_Vector_impl_data" = type { ptr, ptr, ptr }
%"struct.(anonymous namespace)::pj_ocea" = type { double, double, double, double }
%struct.PJ_LP = type { double, double }
%struct.PJ_XY = type { double, double }

; Function Attrs: mustprogress nounwind uwtable
define internal { double, double } @_ZL14ocea_s_inverse5PJ_XYP8PJconsts(double %0, double %1, ptr noundef %2) #6 {
  %4 = alloca %struct.PJ_LP, align 8
  %5 = alloca %struct.PJ_XY, align 8
  %6 = alloca ptr, align 8
  %7 = alloca ptr, align 8
  %8 = alloca double, align 8
  %9 = alloca double, align 8
  %10 = getelementptr inbounds nuw { double, double }, ptr %5, i32 0, i32 0
  store double %0, ptr %10, align 8
  %11 = getelementptr inbounds nuw { double, double }, ptr %5, i32 0, i32 1
  store double %1, ptr %11, align 8
  store ptr %2, ptr %6, align 8, !tbaa !3
  call void @llvm.memset.p0.i64(ptr align 8 %4, i8 0, i64 16, i1 false)
  call void @llvm.lifetime.start.p0(i64 8, ptr %7) #8
  %12 = load ptr, ptr %6, align 8, !tbaa !3
  %13 = getelementptr inbounds nuw %struct.PJconsts, ptr %12, i32 0, i32 11
  %14 = load ptr, ptr %13, align 8, !tbaa !43
  store ptr %14, ptr %7, align 8, !tbaa !41
  %15 = load ptr, ptr %7, align 8, !tbaa !41
  %16 = getelementptr inbounds nuw %"struct.(anonymous namespace)::pj_ocea", ptr %15, i32 0, i32 0
  %17 = load double, ptr %16, align 8, !tbaa !45
  %18 = getelementptr inbounds nuw %struct.PJ_XY, ptr %5, i32 0, i32 1
  %19 = load double, ptr %18, align 8, !tbaa !60
  %20 = fdiv double %19, %17
  store double %20, ptr %18, align 8, !tbaa !60
  %21 = load ptr, ptr %7, align 8, !tbaa !41
  %22 = getelementptr inbounds nuw %"struct.(anonymous namespace)::pj_ocea", ptr %21, i32 0, i32 1
  %23 = load double, ptr %22, align 8, !tbaa !47
  %24 = getelementptr inbounds nuw %struct.PJ_XY, ptr %5, i32 0, i32 0
  %25 = load double, ptr %24, align 8, !tbaa !62
  %26 = fdiv double %25, %23
  store double %26, ptr %24, align 8, !tbaa !62
  call void @llvm.lifetime.start.p0(i64 8, ptr %8) #8
  %27 = getelementptr inbounds nuw %struct.PJ_XY, ptr %5, i32 0, i32 1
  %28 = load double, ptr %27, align 8, !tbaa !60
  %29 = getelementptr inbounds nuw %struct.PJ_XY, ptr %5, i32 0, i32 1
  %30 = load double, ptr %29, align 8, !tbaa !60
  %31 = fneg double %28
  %32 = call double @llvm.fmuladd.f64(double %31, double %30, double 1.000000e+00)
  %33 = call double @sqrt(double noundef %32) #8, !tbaa !52
  store double %33, ptr %8, align 8, !tbaa !51
  call void @llvm.lifetime.start.p0(i64 8, ptr %9) #8
  %34 = getelementptr inbounds nuw %struct.PJ_XY, ptr %5, i32 0, i32 0
  %35 = load double, ptr %34, align 8, !tbaa !62
  %36 = call double @sin(double noundef %35) #8, !tbaa !52
  store double %36, ptr %9, align 8, !tbaa !51
  %37 = getelementptr inbounds nuw %struct.PJ_XY, ptr %5, i32 0, i32 1
  %38 = load double, ptr %37, align 8, !tbaa !60
  %39 = load ptr, ptr %7, align 8, !tbaa !41
  %40 = getelementptr inbounds nuw %"struct.(anonymous namespace)::pj_ocea", ptr %39, i32 0, i32 2
  %41 = load double, ptr %40, align 8, !tbaa !56
  %42 = load double, ptr %8, align 8, !tbaa !51
  %43 = load ptr, ptr %7, align 8, !tbaa !41
  %44 = getelementptr inbounds nuw %"struct.(anonymous namespace)::pj_ocea", ptr %43, i32 0, i32 3
  %45 = load double, ptr %44, align 8, !tbaa !55
  %46 = fmul double %42, %45
  %47 = load double, ptr %9, align 8, !tbaa !51
  %48 = fmul double %46, %47
  %49 = call double @llvm.fmuladd.f64(double %38, double %41, double %48)
  %50 = call double @asin(double noundef %49) #8, !tbaa !52
  %51 = getelementptr inbounds nuw %struct.PJ_LP, ptr %4, i32 0, i32 1
  store double %50, ptr %51, align 8, !tbaa !63
  %52 = load double, ptr %8, align 8, !tbaa !51
  %53 = load ptr, ptr %7, align 8, !tbaa !41
  %54 = getelementptr inbounds nuw %"struct.(anonymous namespace)::pj_ocea", ptr %53, i32 0, i32 2
  %55 = load double, ptr %54, align 8, !tbaa !56
  %56 = fmul double %52, %55
  %57 = load double, ptr %9, align 8, !tbaa !51
  %58 = getelementptr inbounds nuw %struct.PJ_XY, ptr %5, i32 0, i32 1
  %59 = load double, ptr %58, align 8, !tbaa !60
  %60 = load ptr, ptr %7, align 8, !tbaa !41
  %61 = getelementptr inbounds nuw %"struct.(anonymous namespace)::pj_ocea", ptr %60, i32 0, i32 3
  %62 = load double, ptr %61, align 8, !tbaa !55
  %63 = fmul double %59, %62
  %64 = fneg double %63
  %65 = call double @llvm.fmuladd.f64(double %56, double %57, double %64)
  %66 = load double, ptr %8, align 8, !tbaa !51
  %67 = getelementptr inbounds nuw %struct.PJ_XY, ptr %5, i32 0, i32 0
  %68 = load double, ptr %67, align 8, !tbaa !62
  %69 = call double @cos(double noundef %68) #8, !tbaa !52
  %70 = fmul double %66, %69
  %71 = call double @atan2(double noundef %65, double noundef %70) #8, !tbaa !52
  %72 = getelementptr inbounds nuw %struct.PJ_LP, ptr %4, i32 0, i32 0
  store double %71, ptr %72, align 8, !tbaa !65
  call void @llvm.lifetime.end.p0(i64 8, ptr %9) #8
  call void @llvm.lifetime.end.p0(i64 8, ptr %8) #8
  call void @llvm.lifetime.end.p0(i64 8, ptr %7) #8
  %73 = load { double, double }, ptr %4, align 8
  ret { double, double } %73
}