; Function Attrs: mustprogress nofree nounwind willreturn memory(readwrite, inaccessiblemem: write) uwtable
define internal { double, double } @_ZL14ocea_s_inverse5PJ_XYP8PJconsts(double %0, double %1, ptr noundef readonly captures(none) %2) #5 {
  %4 = getelementptr inbounds nuw i8, ptr %2, i64 88
  %5 = load ptr, ptr %4, align 8, !tbaa !40
  %6 = load double, ptr %5, align 8, !tbaa !42
  %7 = fdiv double %1, %6
  %8 = getelementptr inbounds nuw i8, ptr %5, i64 8
  %9 = load double, ptr %8, align 8, !tbaa !44
  %10 = fdiv double %0, %9
  %11 = fneg double %7
  %12 = tail call double @llvm.fmuladd.f64(double %11, double %7, double 1.000000e+00)
  %13 = tail call double @sqrt(double noundef %12) #7, !tbaa !47
  %14 = tail call double @sin(double noundef %10) #7, !tbaa !47
  %15 = getelementptr inbounds nuw i8, ptr %5, i64 16
  %16 = load double, ptr %15, align 8, !tbaa !51
  %17 = getelementptr inbounds nuw i8, ptr %5, i64 24
  %18 = load double, ptr %17, align 8, !tbaa !50
  %19 = fmul double %13, %18
  %20 = fmul double %14, %19
  %21 = tail call double @llvm.fmuladd.f64(double %7, double %16, double %20)
  %22 = tail call double @asin(double noundef %21) #7, !tbaa !47
  %23 = fmul double %13, %16
  %24 = fneg double %18
  %25 = fmul double %7, %24
  %26 = tail call double @llvm.fmuladd.f64(double %23, double %14, double %25)
  %27 = tail call double @cos(double noundef %10) #7, !tbaa !47
  %28 = fmul double %13, %27
  %29 = tail call double @atan2(double noundef %26, double noundef %28) #7, !tbaa !47
  %.fca.0.insert = insertvalue { double, double } poison, double %29, 0
  %.fca.1.insert = insertvalue { double, double } %.fca.0.insert, double %22, 1
  ret { double, double } %.fca.1.insert
}